target datalayout = "e-m:e-p270:32:32-p271:32:32-p272:64:64-i64:64-i128:128-f80:128-n8:16:32:64-S128"
target triple = "x86_64-pc-linux-gnu"

%"struct.open_spiel::GameType" = type <{ %"class.std::__cxx11::basic_string", %"class.std::__cxx11::basic_string", i32, i32, i32, i32, i32, i32, i32, i8, i8, i8, i8, %"class.std::map", i8, i8, [6 x i8] }>
%"class.std::__cxx11::basic_string" = type { %"struct.std::__cxx11::basic_string<char>::_Alloc_hider", i64, %union.anon }
%"struct.std::__cxx11::basic_string<char>::_Alloc_hider" = type { ptr }
%union.anon = type { i64, [8 x i8] }
%"class.std::map" = type { %"class.std::_Rb_tree" }
%"class.std::_Rb_tree" = type { %"struct.std::_Rb_tree<std::__cxx11::basic_string<char>, std::pair<const std::__cxx11::basic_string<char>, open_spiel::GameParameter>, std::_Select1st<std::pair<const std::__cxx11::basic_string<char>, open_spiel::GameParameter>>, std::less<std::__cxx11::basic_string<char>>>::_Rb_tree_impl" }
%"struct.std::_Rb_tree<std::__cxx11::basic_string<char>, std::pair<const std::__cxx11::basic_string<char>, open_spiel::GameParameter>, std::_Select1st<std::pair<const std::__cxx11::basic_string<char>, open_spiel::GameParameter>>, std::less<std::__cxx11::basic_string<char>>>::_Rb_tree_impl" = type { [8 x i8], %"struct.std::_Rb_tree_header" }
%"struct.std::_Rb_tree_header" = type { %"struct.std::_Rb_tree_node_base", i64 }
%"struct.std::_Rb_tree_node_base" = type { i32, ptr, ptr, ptr }
%"class.std::vector.9" = type { %"struct.std::_Vector_base.10" }
%"struct.std::_Vector_base.10" = type { %"struct.std::_Vector_base<std::vector<int>, std::allocator<std::vector<int>>>::_Vector_impl" }
%"struct.std::_Vector_base<std::vector<int>, std::allocator<std::vector<int>>>::_Vector_impl" = type { %"struct.std::_Vector_base<std::vector<int>, std::allocator<std::vector<int>>>::_Vector_impl_data" }
%"struct.std::_Vector_base<std::vector<int>, std::allocator<std::vector<int>>>::_Vector_impl_data" = type { ptr, ptr, ptr }
%"class.std::vector" = type { %"struct.std::_Vector_base" }
%"struct.std::_Vector_base" = type { %"struct.std::_Vector_base<int, std::allocator<int>>::_Vector_impl" }
%"struct.std::_Vector_base<int, std::allocator<int>>::_Vector_impl" = type { %"struct.std::_Vector_base<int, std::allocator<int>>::_Vector_impl_data" }
%"struct.std::_Vector_base<int, std::allocator<int>>::_Vector_impl_data" = type { ptr, ptr, ptr }
%"struct.open_spiel::colored_trails::Trade" = type { %"class.std::vector", %"class.std::vector" }
%"class.open_spiel::colored_trails::ColoredTrailsGame" = type { %"class.open_spiel::Game", i32, i32, i32, %"class.std::vector.36", %"struct.open_spiel::colored_trails::TradeInfo", %"struct.open_spiel::colored_trails::Trade", %"class.absl::debian2::flat_hash_map.53" }
%"class.open_spiel::Game" = type { ptr, %"class.std::enable_shared_from_this", %"struct.open_spiel::GameType", %"class.std::map", %"class.std::map", %"class.absl::debian2::Mutex" }
%"class.std::enable_shared_from_this" = type { %"class.std::weak_ptr" }
%"class.std::weak_ptr" = type { %"class.std::__weak_ptr" }
%"class.std::__weak_ptr" = type { ptr, %"class.std::__weak_count" }
%"class.std::__weak_count" = type { ptr }
%"class.absl::debian2::Mutex" = type { %"struct.std::atomic" }
%"struct.std::atomic" = type { %"struct.std::__atomic_base" }
%"struct.std::__atomic_base" = type { i64 }
%"class.std::vector.36" = type { %"struct.std::_Vector_base.37" }
%"struct.std::_Vector_base.37" = type { %"struct.std::_Vector_base<open_spiel::colored_trails::Board, std::allocator<open_spiel::colored_trails::Board>>::_Vector_impl" }
%"struct.std::_Vector_base<open_spiel::colored_trails::Board, std::allocator<open_spiel::colored_trails::Board>>::_Vector_impl" = type { %"struct.std::_Vector_base<open_spiel::colored_trails::Board, std::allocator<open_spiel::colored_trails::Board>>::_Vector_impl_data" }
%"struct.std::_Vector_base<open_spiel::colored_trails::Board, std::allocator<open_spiel::colored_trails::Board>>::_Vector_impl_data" = type { ptr, ptr, ptr }
%"struct.open_spiel::colored_trails::TradeInfo" = type { %"class.std::vector.9", %"class.std::vector.41", %"class.absl::debian2::flat_hash_map" }
%"class.std::vector.41" = type { %"struct.std::_Vector_base.42" }
%"struct.std::_Vector_base.42" = type { %"struct.std::_Vector_base<std::unique_ptr<open_spiel::colored_trails::Trade>, std::allocator<std::unique_ptr<open_spiel::colored_trails::Trade>>>::_Vector_impl" }
%"struct.std::_Vector_base<std::unique_ptr<open_spiel::colored_trails::Trade>, std::allocator<std::unique_ptr<open_spiel::colored_trails::Trade>>>::_Vector_impl" = type { %"struct.std::_Vector_base<std::unique_ptr<open_spiel::colored_trails::Trade>, std::allocator<std::unique_ptr<open_spiel::colored_trails::Trade>>>::_Vector_impl_data" }
%"struct.std::_Vector_base<std::unique_ptr<open_spiel::colored_trails::Trade>, std::allocator<std::unique_ptr<open_spiel::colored_trails::Trade>>>::_Vector_impl_data" = type { ptr, ptr, ptr }
%"class.absl::debian2::flat_hash_map" = type { %"class.absl::debian2::container_internal::raw_hash_map" }
%"class.absl::debian2::container_internal::raw_hash_map" = type { %"class.absl::debian2::container_internal::raw_hash_set" }
%"class.absl::debian2::container_internal::raw_hash_set" = type { ptr, ptr, i64, i64, %"class.absl::debian2::container_internal::CompressedTuple" }
%"class.absl::debian2::container_internal::CompressedTuple" = type { %"struct.absl::debian2::container_internal::internal_compressed_tuple::CompressedTupleImpl" }
%"struct.absl::debian2::container_internal::internal_compressed_tuple::CompressedTupleImpl" = type { %"struct.absl::debian2::container_internal::internal_compressed_tuple::Storage" }
%"struct.absl::debian2::container_internal::internal_compressed_tuple::Storage" = type { i64 }
%"class.absl::debian2::flat_hash_map.53" = type { %"class.absl::debian2::container_internal::raw_hash_map.54" }
%"class.absl::debian2::container_internal::raw_hash_map.54" = type { %"class.absl::debian2::container_internal::raw_hash_set.55" }
%"class.absl::debian2::container_internal::raw_hash_set.55" = type { ptr, ptr, i64, i64, %"class.absl::debian2::container_internal::CompressedTuple.56" }
%"class.absl::debian2::container_internal::CompressedTuple.56" = type { %"struct.absl::debian2::container_internal::internal_compressed_tuple::CompressedTupleImpl.57" }
%"struct.absl::debian2::container_internal::internal_compressed_tuple::CompressedTupleImpl.57" = type { %"struct.absl::debian2::container_internal::internal_compressed_tuple::Storage" }

; Function Attrs: mustprogress nounwind uwtable
define linkonce_odr noundef i64 @_ZNKSt6vectorISt10unique_ptrIN10open_spiel14colored_trails5TradeESt14default_deleteIS3_EESaIS6_EE4sizeEv(ptr noundef nonnull align 8 dereferenceable(24) %0) #5 comdat align 2 {
  %2 = alloca ptr, align 8
  store ptr %0, ptr %2, align 8
  %3 = load ptr, ptr %2, align 8
  %4 = getelementptr inbounds nuw %"struct.std::_Vector_base.42", ptr %3, i32 0, i32 0
  %5 = getelementptr inbounds nuw %"struct.std::_Vector_base<std::unique_ptr<open_spiel::colored_trails::Trade>, std::allocator<std::unique_ptr<open_spiel::colored_trails::Trade>>>::_Vector_impl_data", ptr %4, i32 0, i32 1
  %6 = load ptr, ptr %5, align 8
  %7 = getelementptr inbounds nuw %"struct.std::_Vector_base.42", ptr %3, i32 0, i32 0
  %8 = getelementptr inbounds nuw %"struct.std::_Vector_base<std::unique_ptr<open_spiel::colored_trails::Trade>, std::allocator<std::unique_ptr<open_spiel::colored_trails::Trade>>>::_Vector_impl_data", ptr %7, i32 0, i32 0
  %9 = load ptr, ptr %8, align 8
  %10 = ptrtoint ptr %6 to i64
  %11 = ptrtoint ptr %9 to i64
  %12 = sub i64 %10, %11
  %13 = sdiv exact i64 %12, 8
  ret i64 %13
}

; Function Attrs: mustprogress nounwind uwtable
define noundef i32 @_ZNK10open_spiel14colored_trails17ColoredTrailsGame18NumDistinctActionsEv(ptr noundef nonnull align 8 dereferenceable(496) %0) unnamed_addr #5 align 2 {
  %2 = alloca ptr, align 8
  store ptr %0, ptr %2, align 8
  %3 = load ptr, ptr %2, align 8
  %4 = getelementptr inbounds nuw %"class.open_spiel::colored_trails::ColoredTrailsGame", ptr %3, i32 0, i32 5
  %5 = getelementptr inbounds nuw %"struct.open_spiel::colored_trails::TradeInfo", ptr %4, i32 0, i32 1
  %6 = call noundef i64 @_ZNKSt6vectorISt10unique_ptrIN10open_spiel14colored_trails5TradeESt14default_deleteIS3_EESaIS6_EE4sizeEv(ptr noundef nonnull align 8 dereferenceable(24) %5) #3
  %7 = add i64 %6, 3
  %8 = trunc i64 %7 to i32
  ret i32 %8
}