; Function Attrs: mustprogress nofree norecurse nosync nounwind willreturn memory(argmem: read) uwtable
define noundef i32 @_ZNK10open_spiel14colored_trails17ColoredTrailsGame18NumDistinctActionsEv(ptr nocapture noundef nonnull readonly align 8 dereferenceable(496) %0) unnamed_addr #5 align 2 {
  %2 = getelementptr inbounds i8, ptr %0, i64 344
  %3 = getelementptr inbounds i8, ptr %0, i64 352
  %4 = load ptr, ptr %3, align 8
  %5 = load ptr, ptr %2, align 8
  %6 = ptrtoint ptr %4 to i64
  %7 = ptrtoint ptr %5 to i64
  %8 = sub i64 %6, %7
  %9 = lshr exact i64 %8, 3
  %10 = trunc i64 %9 to i32
  %11 = add i32 %10, 3
  ret i32 %11
}